target datalayout = "e-m:e-p270:32:32-p271:32:32-p272:64:64-i64:64-i128:128-f80:128-n8:16:32:64-S128"
target triple = "x86_64-pc-linux-gnu"

@.str.8 = private unnamed_addr constant [34 x i8] c"cli_basename: Invalid arguments.\0A\00", align 1
@.str.9 = private unnamed_addr constant [2 x i8] c"/\00", align 1
@.str.10 = private unnamed_addr constant [59 x i8] c"cli_basename: Provided path does not include a file name.\0A\00", align 1
@.str.11 = private unnamed_addr constant [60 x i8] c"cli_basename: Failed to allocate memory for file basename.\0A\00", align 1

; Function Attrs: nounwind uwtable
define i32 @cli_basename(ptr noundef %0, i64 noundef %1, ptr noundef %2) #0 {
  %4 = alloca ptr, align 8
  %5 = alloca i64, align 8
  %6 = alloca ptr, align 8
  %7 = alloca i32, align 4
  %8 = alloca ptr, align 8
  store ptr %0, ptr %4, align 8
  store i64 %1, ptr %5, align 8
  store ptr %2, ptr %6, align 8
  store i32 3, ptr %7, align 4
  store ptr null, ptr %8, align 8
  %9 = load ptr, ptr %4, align 8
  %10 = icmp eq ptr null, %9
  br i1 %10, label %17, label %11

11:                                               ; preds = %3
  %12 = load ptr, ptr %6, align 8
  %13 = icmp eq ptr null, %12
  br i1 %13, label %17, label %14

14:                                               ; preds = %11
  %15 = load i64, ptr %5, align 8
  %16 = icmp eq i64 %15, 0
  br i1 %16, label %17, label %18

17:                                               ; preds = %14, %11, %3
  call void (ptr, ...) @cli_dbgmsg(ptr noundef @.str.8)
  br label %82

18:                                               ; preds = %14
  %19 = load ptr, ptr %4, align 8
  %20 = load i64, ptr %5, align 8
  %21 = getelementptr inbounds i8, ptr %19, i64 %20
  %22 = getelementptr inbounds i8, ptr %21, i64 -1
  store ptr %22, ptr %8, align 8
  br label %23

23:                                               ; preds = %36, %18
  %24 = load ptr, ptr %8, align 8
  %25 = load ptr, ptr %4, align 8
  %26 = icmp ugt ptr %24, %25
  br i1 %26, label %27, label %39

27:                                               ; preds = %23
  %28 = load ptr, ptr %8, align 8
  %29 = getelementptr inbounds i8, ptr %28, i64 0
  %30 = load i8, ptr %29, align 1
  %31 = sext i8 %30 to i32
  %32 = load i8, ptr @.str.9, align 1
  %33 = sext i8 %32 to i32
  %34 = icmp eq i32 %31, %33
  br i1 %34, label %35, label %36

35:                                               ; preds = %27
  br label %39

36:                                               ; preds = %27
  %37 = load ptr, ptr %8, align 8
  %38 = getelementptr inbounds i8, ptr %37, i32 -1
  store ptr %38, ptr %8, align 8
  br label %23

39:                                               ; preds = %35, %23
  %40 = load ptr, ptr %8, align 8
  %41 = load ptr, ptr %4, align 8
  %42 = icmp ne ptr %40, %41
  br i1 %42, label %51, label %43

43:                                               ; preds = %39
  %44 = load ptr, ptr %8, align 8
  %45 = getelementptr inbounds i8, ptr %44, i64 0
  %46 = load i8, ptr %45, align 1
  %47 = sext i8 %46 to i32
  %48 = load i8, ptr @.str.9, align 1
  %49 = sext i8 %48 to i32
  %50 = icmp eq i32 %47, %49
  br i1 %50, label %51, label %54

51:                                               ; preds = %43, %39
  %52 = load ptr, ptr %8, align 8
  %53 = getelementptr inbounds i8, ptr %52, i32 1
  store ptr %53, ptr %8, align 8
  br label %54

54:                                               ; preds = %51, %43
  %55 = load ptr, ptr %8, align 8
  %56 = load i64, ptr %5, align 8
  %57 = load ptr, ptr %8, align 8
  %58 = load ptr, ptr %4, align 8
  %59 = ptrtoint ptr %57 to i64
  %60 = ptrtoint ptr %58 to i64
  %61 = sub i64 %59, %60
  %62 = sub i64 %56, %61
  %63 = call i64 @strnlen(ptr noundef %55, i64 noundef %62) #7
  %64 = icmp eq i64 0, %63
  br i1 %64, label %65, label %66

65:                                               ; preds = %54
  call void (ptr, ...) @cli_dbgmsg(ptr noundef @.str.10)
  store i32 26, ptr %7, align 4
  br label %82

66:                                               ; preds = %54
  %67 = load ptr, ptr %8, align 8
  %68 = load i64, ptr %5, align 8
  %69 = load ptr, ptr %8, align 8
  %70 = load ptr, ptr %4, align 8
  %71 = ptrtoint ptr %69 to i64
  %72 = ptrtoint ptr %70 to i64
  %73 = sub i64 %71, %72
  %74 = sub i64 %68, %73
  %75 = call noalias ptr @strndup(ptr noundef %67, i64 noundef %74) #8
  %76 = load ptr, ptr %6, align 8
  store ptr %75, ptr %76, align 8
  %77 = load ptr, ptr %6, align 8
  %78 = load ptr, ptr %77, align 8
  %79 = icmp eq ptr null, %78
  br i1 %79, label %80, label %81

80:                                               ; preds = %66
  call void (ptr, ...) @cli_errmsg(ptr noundef @.str.11)
  store i32 20, ptr %7, align 4
  br label %82

81:                                               ; preds = %66
  store i32 0, ptr %7, align 4
  br label %82

82:                                               ; preds = %81, %80, %65, %17
  %83 = load i32, ptr %7, align 4
  ret i32 %83
}