; Function Attrs: nounwind uwtable
define noundef i32 @cli_basename(ptr noundef %0, i64 noundef %1, ptr noundef writeonly %2) local_unnamed_addr #1 {
  %4 = icmp eq ptr %0, null
  %5 = icmp eq ptr %2, null
  %or.cond = or i1 %4, %5
  %6 = icmp eq i64 %1, 0
  %or.cond3 = or i1 %6, %or.cond
  br i1 %or.cond3, label %7, label %8

7:                                                ; preds = %3
  tail call void (ptr, ...) @cli_dbgmsg(ptr noundef nonnull @.str.8) #27
  br label %31

8:                                                ; preds = %3
  %9 = getelementptr inbounds i8, ptr %0, i64 %1
  br label %10

10:                                               ; preds = %12, %8
  %.pn = phi ptr [ %9, %8 ], [ %.0, %12 ]
  %.0 = getelementptr inbounds i8, ptr %.pn, i64 -1
  %11 = icmp ugt ptr %.0, %0
  br i1 %11, label %12, label %15

12:                                               ; preds = %10
  %13 = load i8, ptr %.0, align 1
  %14 = icmp eq i8 %13, 47
  br i1 %14, label %15, label %10

15:                                               ; preds = %12, %10
  %.not = icmp eq ptr %.0, %0
  br i1 %.not, label %16, label %19

16:                                               ; preds = %15
  %17 = load i8, ptr %0, align 1
  %18 = icmp eq i8 %17, 47
  br i1 %18, label %19, label %20

19:                                               ; preds = %16, %15
  br label %20

20:                                               ; preds = %19, %16
  %.1 = phi ptr [ %.pn, %19 ], [ %0, %16 ]
  %21 = ptrtoint ptr %.1 to i64
  %22 = ptrtoint ptr %0 to i64
  %.neg = sub i64 %22, %21
  %23 = add i64 %.neg, %1
  %24 = tail call i64 @strnlen(ptr noundef %.1, i64 noundef %23) #26
  %25 = icmp eq i64 %24, 0
  br i1 %25, label %26, label %27

26:                                               ; preds = %20
  tail call void (ptr, ...) @cli_dbgmsg(ptr noundef nonnull @.str.10) #27
  br label %31

27:                                               ; preds = %20
  %28 = tail call noalias ptr @strndup(ptr noundef %.1, i64 noundef %23) #27
  store ptr %28, ptr %2, align 8
  %29 = icmp eq ptr %28, null
  br i1 %29, label %30, label %31

30:                                               ; preds = %27
  tail call void (ptr, ...) @cli_errmsg(ptr noundef nonnull @.str.11) #27
  br label %31

31:                                               ; preds = %27, %30, %26, %7
  %.026 = phi i32 [ 3, %7 ], [ 26, %26 ], [ 20, %30 ], [ 0, %27 ]
  ret i32 %.026
}